target datalayout = "e-m:e-p270:32:32-p271:32:32-p272:64:64-i64:64-i128:128-f80:128-n8:16:32:64-S128"
target triple = "x86_64-pc-linux-gnu"

%struct.expert_field = type { i32, i32 }

@hf_nfapi_number_pdus = internal global i32 0, align 4
@ett_nfapi_lbt_dl_config_pdu_list = internal global i32 0, align 4
@ei_invalid_range = internal global %struct.expert_field zeroinitializer, align 4
@.str.1839 = private unnamed_addr constant [3 x i8] c"%s\00", align 1
@.str.1840 = private unnamed_addr constant [5 x i8] c"[%d]\00", align 1
@.str.2282 = private unnamed_addr constant [36 x i8] c"Invalid number of pdus value [1..2]\00", align 1
@.str.2283 = private unnamed_addr constant [16 x i8] c"LBT DL PDU List\00", align 1

; Function Attrs: nounwind uwtable
define internal void @dissect_array_value(ptr noundef %0, ptr noundef %1, ptr noundef %2, i32 noundef %3, i32 noundef %4, ptr noundef %5) #0 {
  %7 = alloca ptr, align 8
  %8 = alloca ptr, align 8
  %9 = alloca ptr, align 8
  %10 = alloca i32, align 4
  %11 = alloca i32, align 4
  %12 = alloca ptr, align 8
  %13 = alloca i16, align 2
  store ptr %0, ptr %7, align 8
  store ptr %1, ptr %8, align 8
  store ptr %2, ptr %9, align 8
  store i32 %3, ptr %10, align 4
  store i32 %4, ptr %11, align 4
  store ptr %5, ptr %12, align 8
  %14 = load i32, ptr %11, align 4
  %15 = icmp ugt i32 %14, 0
  br i1 %15, label %16, label %41

16:                                               ; preds = %6
  %17 = load ptr, ptr %7, align 8
  %18 = load i32, ptr %10, align 4
  %19 = load ptr, ptr %9, align 8
  %20 = call ptr (ptr, i32, i32, ptr, ...) @ptvcursor_add_text_with_subtree(ptr noundef %17, i32 noundef -1, i32 noundef %18, ptr noundef @.str.1839, ptr noundef %19)
  store i16 0, ptr %13, align 2
  br label %21

21:                                               ; preds = %36, %16
  %22 = load i16, ptr %13, align 2
  %23 = zext i16 %22 to i32
  %24 = load i32, ptr %11, align 4
  %25 = icmp ult i32 %23, %24
  br i1 %25, label %26, label %39

26:                                               ; preds = %21
  %27 = load ptr, ptr %7, align 8
  %28 = load i32, ptr %10, align 4
  %29 = load i16, ptr %13, align 2
  %30 = zext i16 %29 to i32
  %31 = call ptr (ptr, i32, i32, ptr, ...) @ptvcursor_add_text_with_subtree(ptr noundef %27, i32 noundef -1, i32 noundef %28, ptr noundef @.str.1840, i32 noundef %30)
  %32 = load ptr, ptr %12, align 8
  %33 = load ptr, ptr %7, align 8
  %34 = load ptr, ptr %8, align 8
  call void %32(ptr noundef %33, ptr noundef %34)
  %35 = load ptr, ptr %7, align 8
  call void @ptvcursor_pop_subtree(ptr noundef %35)
  br label %36

36:                                               ; preds = %26
  %37 = load i16, ptr %13, align 2
  %38 = add i16 %37, 1
  store i16 %38, ptr %13, align 2
  br label %21, !llvm.loop !4

39:                                               ; preds = %21
  %40 = load ptr, ptr %7, align 8
  call void @ptvcursor_pop_subtree(ptr noundef %40)
  br label %41

41:                                               ; preds = %39, %6
  ret void
}

; Function Attrs: nounwind uwtable
define internal void @dissect_lbt_dl_config_request_body_value(ptr noundef %0, ptr noundef %1) #0 {
  %3 = alloca ptr, align 8
  %4 = alloca ptr, align 8
  %5 = alloca i32, align 4
  %6 = alloca ptr, align 8
  store ptr %0, ptr %3, align 8
  store ptr %1, ptr %4, align 8
  %7 = load ptr, ptr %3, align 8
  %8 = load i32, ptr @hf_nfapi_number_pdus, align 4
  %9 = call ptr @ptvcursor_add_ret_uint(ptr noundef %7, i32 noundef %8, i32 noundef 2, i32 noundef 0, ptr noundef %5)
  store ptr %9, ptr %6, align 8
  %10 = load i32, ptr %5, align 4
  %11 = icmp uge i32 %10, 1
  br i1 %11, label %12, label %15

12:                                               ; preds = %2
  %13 = load i32, ptr %5, align 4
  %14 = icmp ule i32 %13, 2
  br i1 %14, label %19, label %15

15:                                               ; preds = %12, %2
  %16 = load ptr, ptr %4, align 8
  %17 = load ptr, ptr %6, align 8
  %18 = call ptr (ptr, ptr, ptr, ptr, ...) @expert_add_info_format(ptr noundef %16, ptr noundef %17, ptr noundef @ei_invalid_range, ptr noundef @.str.2282)
  br label %19

19:                                               ; preds = %15, %12
  %20 = load ptr, ptr %3, align 8
  %21 = load ptr, ptr %4, align 8
  %22 = load i32, ptr @ett_nfapi_lbt_dl_config_pdu_list, align 4
  %23 = load i32, ptr %5, align 4
  call void @dissect_array_value(ptr noundef %20, ptr noundef %21, ptr noundef @.str.2283, i32 noundef %22, i32 noundef %23, ptr noundef @dissect_lbt_dl_config_pdu)
  ret void
}